; ModuleID = 'bench/proj/original/gall.cpp.ll'
source_filename = "bench/proj/original/gall.cpp.ll"
target datalayout = "e-m:e-p270:32:32-p271:32:32-p272:64:64-i64:64-i128:128-f80:128-n8:16:32:64-S128"
target triple = "x86_64-pc-linux-gnu"

@_ZL8des_gall = internal constant [36 x i8] c"Gall (Gall Stereographic)\0A\09Cyl, Sph\00", align 16
@pj_s_gall = hidden local_unnamed_addr constant ptr @_ZL8des_gall, align 8
@.str = private unnamed_addr constant [5 x i8] c"gall\00", align 1

; Function Attrs: mustprogress uwtable
define hidden noundef ptr @pj_gall(ptr noundef writeonly %0) local_unnamed_addr #0 {
  %.not = icmp eq ptr %0, null
  br i1 %.not, label %6, label %2

2:                                                ; preds = %1
  %3 = getelementptr inbounds i8, ptr %0, i64 216
  store double 0.000000e+00, ptr %3, align 8
  %4 = getelementptr inbounds i8, ptr %0, i64 112
  store ptr @_ZL14gall_s_inverse5PJ_XYP8PJconsts, ptr %4, align 8
  %5 = getelementptr inbounds i8, ptr %0, i64 104
  store ptr @_ZL14gall_s_forward5PJ_LPP8PJconsts, ptr %5, align 8
  br label %15

6:                                                ; preds = %1
  %7 = tail call noundef ptr @_Z6pj_newv()
  %8 = icmp eq ptr %7, null
  br i1 %8, label %15, label %9

9:                                                ; preds = %6
  %10 = getelementptr inbounds i8, ptr %7, i64 8
  store ptr @.str, ptr %10, align 8
  %11 = getelementptr inbounds i8, ptr %7, i64 16
  store ptr @_ZL8des_gall, ptr %11, align 8
  %12 = getelementptr inbounds i8, ptr %7, i64 360
  store i32 1, ptr %12, align 8
  %13 = getelementptr inbounds i8, ptr %7, i64 380
  store i32 4, ptr %13, align 4
  %14 = getelementptr inbounds i8, ptr %7, i64 384
  store i32 1, ptr %14, align 8
  br label %15

15:                                               ; preds = %6, %9, %2
  %.0 = phi ptr [ %0, %2 ], [ %7, %9 ], [ null, %6 ]
  ret ptr %.0
}

; Function Attrs: mustprogress nofree norecurse nosync nounwind willreturn memory(argmem: write) uwtable
define hidden noundef ptr @_Z33pj_projection_specific_setup_gallP8PJconsts(ptr noundef returned writeonly %0) local_unnamed_addr #1 {
  %2 = getelementptr inbounds i8, ptr %0, i64 216
  store double 0.000000e+00, ptr %2, align 8
  %3 = getelementptr inbounds i8, ptr %0, i64 112
  store ptr @_ZL14gall_s_inverse5PJ_XYP8PJconsts, ptr %3, align 8
  %4 = getelementptr inbounds i8, ptr %0, i64 104
  store ptr @_ZL14gall_s_forward5PJ_LPP8PJconsts, ptr %4, align 8
  ret ptr %0
}

declare noundef ptr @_Z6pj_newv() local_unnamed_addr #2

; Function Attrs: mustprogress nofree nounwind willreturn memory(write) uwtable
define internal { double, double } @_ZL14gall_s_inverse5PJ_XYP8PJconsts(double %0, double %1, ptr nocapture readnone %2) #3 {
  %4 = fmul double %0, 0x3FF6A09E667F3BCD
  %5 = fmul double %1, 0x3FE2BEC333018867
  %6 = tail call double @atan(double noundef %5) #5
  %7 = fmul double %6, 2.000000e+00
  %.fca.0.insert = insertvalue { double, double } poison, double %4, 0
  %.fca.1.insert = insertvalue { double, double } %.fca.0.insert, double %7, 1
  ret { double, double } %.fca.1.insert
}

; Function Attrs: mustprogress nofree nounwind willreturn memory(write) uwtable
define internal { double, double } @_ZL14gall_s_forward5PJ_LPP8PJconsts(double %0, double %1, ptr nocapture readnone %2) #3 {
  %4 = fmul double %0, 0x3FE6A09E667F3BCD
  %5 = fmul double %1, 5.000000e-01
  %6 = tail call double @tan(double noundef %5) #5
  %7 = fmul double %6, 0x3FFB504F333F9DE6
  %.fca.0.insert = insertvalue { double, double } poison, double %4, 0
  %.fca.1.insert = insertvalue { double, double } %.fca.0.insert, double %7, 1
  ret { double, double } %.fca.1.insert
}

; Function Attrs: mustprogress nofree nounwind willreturn memory(write)
declare double @atan(double noundef) local_unnamed_addr #4

; Function Attrs: mustprogress nofree nounwind willreturn memory(write)
declare double @tan(double noundef) local_unnamed_addr #4


!llvm.module.flags = !{!0, !1, !2, !3}

!0 = !{i32 1, !"wchar_size", i32 4}
!1 = !{i32 8, !"PIC Level", i32 2}
!2 = !{i32 7, !"uwtable", i32 2}
!3 = !{i32 7, !"frame-pointer", i32 2}
